target datalayout = "e-m:e-p270:32:32-p271:32:32-p272:64:64-i64:64-i128:128-f80:128-n8:16:32:64-S128"
target triple = "x86_64-pc-linux-gnu"

%struct.OSQPVectorf_ = type { ptr, i64 }

; Function Attrs: nounwind uwtable
define i64 @OSQPVectorf_is_eq(ptr noundef %0, ptr noundef %1, double noundef %2) #0 {
  %4 = alloca i64, align 8
  %5 = alloca ptr, align 8
  %6 = alloca ptr, align 8
  %7 = alloca double, align 8
  %8 = alloca i64, align 8
  %9 = alloca i64, align 8
  store ptr %0, ptr %5, align 8
  store ptr %1, ptr %6, align 8
  store double %2, ptr %7, align 8
  %10 = load ptr, ptr %5, align 8
  %11 = getelementptr inbounds %struct.OSQPVectorf_, ptr %10, i32 0, i32 1
  %12 = load i64, ptr %11, align 8
  %13 = load ptr, ptr %6, align 8
  %14 = getelementptr inbounds %struct.OSQPVectorf_, ptr %13, i32 0, i32 1
  %15 = load i64, ptr %14, align 8
  %16 = icmp ne i64 %12, %15
  br i1 %16, label %17, label %18

17:                                               ; preds = %3
  store i64 0, ptr %4, align 8
  br label %80

18:                                               ; preds = %3
  store i64 1, ptr %9, align 8
  store i64 0, ptr %8, align 8
  br label %19

19:                                               ; preds = %75, %18
  %20 = load i64, ptr %8, align 8
  %21 = load ptr, ptr %5, align 8
  %22 = getelementptr inbounds %struct.OSQPVectorf_, ptr %21, i32 0, i32 1
  %23 = load i64, ptr %22, align 8
  %24 = icmp slt i64 %20, %23
  br i1 %24, label %25, label %78

25:                                               ; preds = %19
  %26 = load ptr, ptr %5, align 8
  %27 = getelementptr inbounds %struct.OSQPVectorf_, ptr %26, i32 0, i32 0
  %28 = load ptr, ptr %27, align 8
  %29 = load i64, ptr %8, align 8
  %30 = getelementptr inbounds double, ptr %28, i64 %29
  %31 = load double, ptr %30, align 8
  %32 = load ptr, ptr %6, align 8
  %33 = getelementptr inbounds %struct.OSQPVectorf_, ptr %32, i32 0, i32 0
  %34 = load ptr, ptr %33, align 8
  %35 = load i64, ptr %8, align 8
  %36 = getelementptr inbounds double, ptr %34, i64 %35
  %37 = load double, ptr %36, align 8
  %38 = fsub double %31, %37
  %39 = fcmp olt double %38, 0.000000e+00
  br i1 %39, label %40, label %55

40:                                               ; preds = %25
  %41 = load ptr, ptr %5, align 8
  %42 = getelementptr inbounds %struct.OSQPVectorf_, ptr %41, i32 0, i32 0
  %43 = load ptr, ptr %42, align 8
  %44 = load i64, ptr %8, align 8
  %45 = getelementptr inbounds double, ptr %43, i64 %44
  %46 = load double, ptr %45, align 8
  %47 = load ptr, ptr %6, align 8
  %48 = getelementptr inbounds %struct.OSQPVectorf_, ptr %47, i32 0, i32 0
  %49 = load ptr, ptr %48, align 8
  %50 = load i64, ptr %8, align 8
  %51 = getelementptr inbounds double, ptr %49, i64 %50
  %52 = load double, ptr %51, align 8
  %53 = fsub double %46, %52
  %54 = fneg double %53
  br label %69

55:                                               ; preds = %25
  %56 = load ptr, ptr %5, align 8
  %57 = getelementptr inbounds %struct.OSQPVectorf_, ptr %56, i32 0, i32 0
  %58 = load ptr, ptr %57, align 8
  %59 = load i64, ptr %8, align 8
  %60 = getelementptr inbounds double, ptr %58, i64 %59
  %61 = load double, ptr %60, align 8
  %62 = load ptr, ptr %6, align 8
  %63 = getelementptr inbounds %struct.OSQPVectorf_, ptr %62, i32 0, i32 0
  %64 = load ptr, ptr %63, align 8
  %65 = load i64, ptr %8, align 8
  %66 = getelementptr inbounds double, ptr %64, i64 %65
  %67 = load double, ptr %66, align 8
  %68 = fsub double %61, %67
  br label %69

69:                                               ; preds = %55, %40
  %70 = phi double [ %54, %40 ], [ %68, %55 ]
  %71 = load double, ptr %7, align 8
  %72 = fcmp ogt double %70, %71
  br i1 %72, label %73, label %74

73:                                               ; preds = %69
  store i64 0, ptr %9, align 8
  br label %74

74:                                               ; preds = %73, %69
  br label %75

75:                                               ; preds = %74
  %76 = load i64, ptr %8, align 8
  %77 = add nsw i64 %76, 1
  store i64 %77, ptr %8, align 8
  br label %19, !llvm.loop !4

78:                                               ; preds = %19
  %79 = load i64, ptr %9, align 8
  store i64 %79, ptr %4, align 8
  br label %80

80:                                               ; preds = %78, %17
  %81 = load i64, ptr %4, align 8
  ret i64 %81
}