; Function Attrs: nofree norecurse nosync nounwind memory(read, inaccessiblemem: none) uwtable
define i64 @OSQPVectorf_is_eq(ptr nocapture noundef readonly %0, ptr nocapture noundef readonly %1, double noundef %2) local_unnamed_addr #0 {
  %4 = getelementptr inbounds i8, ptr %0, i64 8
  %5 = load i64, ptr %4, align 8
  %6 = getelementptr inbounds i8, ptr %1, i64 8
  %7 = load i64, ptr %6, align 8
  %.not = icmp eq i64 %5, %7
  br i1 %.not, label %.preheader, label %.loopexit

.preheader:                                       ; preds = %3
  %8 = icmp sgt i64 %5, 0
  br i1 %8, label %.lr.ph, label %.loopexit

.lr.ph:                                           ; preds = %.preheader
  %9 = load ptr, ptr %0, align 8
  %10 = load ptr, ptr %1, align 8
  br label %11

11:                                               ; preds = %.lr.ph, %11
  %.024 = phi i64 [ 1, %.lr.ph ], [ %.1, %11 ]
  %.01923 = phi i64 [ 0, %.lr.ph ], [ %21, %11 ]
  %12 = getelementptr inbounds double, ptr %9, i64 %.01923
  %13 = load double, ptr %12, align 8
  %14 = getelementptr inbounds double, ptr %10, i64 %.01923
  %15 = load double, ptr %14, align 8
  %16 = fsub double %13, %15
  %17 = fcmp olt double %16, 0.000000e+00
  %18 = fneg double %16
  %19 = select i1 %17, double %18, double %16
  %20 = fcmp ogt double %19, %2
  %.1 = select i1 %20, i64 0, i64 %.024
  %21 = add nuw nsw i64 %.01923, 1
  %exitcond.not = icmp eq i64 %21, %5
  br i1 %exitcond.not, label %.loopexit, label %11, !llvm.loop !4

.loopexit:                                        ; preds = %11, %.preheader, %3
  %.020 = phi i64 [ 0, %3 ], [ 1, %.preheader ], [ %.1, %11 ]
  ret i64 %.020
}